#include <math.h>
#include <stdio.h>
#include <stdlib.h>
#include <string.h>


int main()
{
	int n,i,j,k,a[100];
	scanf("%d",&n);
	for(i=0;i<n;i++)
	{
		scanf("%d",&a[i]);
	}
	for(i=0;i<n;i++)
	{
		for(j=i+1;j<n;j++)
		{
			if(a[j]==a[i])
			{
				for(k=j;k<n-1;k++)
				{
					a[k]=a[k+1];
				}
				n=n-1;
				j=j-1;
			}
		}
	}
	for(i=0;i<n-1;i++)
	{
		printf("%d,",a[i]);
	}
	printf("%d",a[n-1]);
	
	return 0;
}
